; Function Attrs: mustprogress nofree norecurse nosync nounwind willreturn memory(read, inaccessiblemem: none) uwtable
define hidden noundef i32 @_ZNK2cv7details10Chessboard5Board4Cell6getColEv(ptr noundef nonnull readonly align 8 captures(none) dereferenceable(66) %0) local_unnamed_addr #18 align 2 {
  br label %2

2:                                                ; preds = %2, %1
  %.04 = phi i32 [ 0, %1 ], [ %5, %2 ]
  %.0 = phi ptr [ %0, %1 ], [ %4, %2 ]
  %3 = getelementptr inbounds nuw i8, ptr %.0, i64 32
  %4 = load ptr, ptr %3, align 8, !tbaa !187
  %.not = icmp eq ptr %4, null
  %5 = add nuw nsw i32 %.04, 1
  br i1 %.not, label %6, label %2, !llvm.loop !188

6:                                                ; preds = %2
  ret i32 %.04
}